; Function Attrs: null_pointer_is_valid sspstrong uwtable
define internal i32 @dissect_atm_pw_truncated(ptr noundef %0, ptr noundef %1, ptr noundef %2, ptr noundef %3) #1 {
  %.not = icmp eq ptr %3, null
  br i1 %.not, label %5, label %6

5:                                                ; preds = %4
  tail call void (ptr, ...) @proto_report_dissector_bug(ptr noundef nonnull @.str.326, ptr noundef nonnull @.str.327, i32 noundef 1688, ptr noundef nonnull @.str.328) #10
  unreachable

6:                                                ; preds = %4
  %7 = tail call fastcc i32 @dissect_atm_common(ptr noundef %0, ptr noundef %1, ptr noundef %2, i1 noundef zeroext true, ptr noundef %3, i1 noundef zeroext true)
  ret i32 %7
}